target datalayout = "e-m:e-p270:32:32-p271:32:32-p272:64:64-i64:64-i128:128-f80:128-n8:16:32:64-S128"
target triple = "x86_64-pc-linux-gnu"

%struct.expert_field = type { i32, i32 }

@hf_ldp_tlv_diffserv_type = internal global i32 0, align 4
@hf_ldp_tlv_diffserv_mapnb = internal global i32 0, align 4
@ei_ldp_tlv_fec_len = internal global %struct.expert_field zeroinitializer, align 4
@dissect_tlv_diffserv.etts = internal global [2 x ptr] [ptr @ett_ldp_diffserv_map, ptr @ett_ldp_diffserv_map_phbid], align 16
@.str.1092 = private unnamed_addr constant [61 x i8] c"Error processing Diff-Serv TLV: length is %d, should be >= 4\00", align 1

; Function Attrs: null_pointer_is_valid sspstrong uwtable
define internal void @dissect_tlv_diffserv(ptr noundef %0, ptr noundef %1, i32 noundef %2, ptr noundef %3, i32 noundef %4) #0 {
  %6 = alloca ptr, align 8
  %7 = alloca ptr, align 8
  %8 = alloca i32, align 4
  %9 = alloca ptr, align 8
  %10 = alloca i32, align 4
  %11 = alloca i32, align 4
  %12 = alloca i32, align 4
  %13 = alloca i32, align 4
  %14 = alloca i32, align 4
  store ptr %0, ptr %6, align 8
  store ptr %1, ptr %7, align 8
  store i32 %2, ptr %8, align 4
  store ptr %3, ptr %9, align 8
  store i32 %4, ptr %10, align 4
  call void @llvm.lifetime.start.p0(i64 4, ptr %11) #7
  call void @llvm.lifetime.start.p0(i64 4, ptr %12) #7
  call void @llvm.lifetime.start.p0(i64 4, ptr %13) #7
  %15 = load i32, ptr %10, align 4
  %16 = icmp slt i32 %15, 4
  br i1 %16, label %17, label %25

17:                                               ; preds = %5
  %18 = load ptr, ptr %9, align 8
  %19 = load ptr, ptr %7, align 8
  %20 = load ptr, ptr %6, align 8
  %21 = load i32, ptr %8, align 4
  %22 = load i32, ptr %10, align 4
  %23 = load i32, ptr %10, align 4
  %24 = call ptr (ptr, ptr, ptr, ptr, i32, i32, ptr, ...) @proto_tree_add_expert_format(ptr noundef %18, ptr noundef %19, ptr noundef @ei_ldp_tlv_fec_len, ptr noundef %20, i32 noundef %21, i32 noundef %22, ptr noundef @.str.1092, i32 noundef %23)
  store i32 1, ptr %14, align 4
  br label %81

25:                                               ; preds = %5
  %26 = load ptr, ptr %9, align 8
  %27 = load i32, ptr @hf_ldp_tlv_diffserv_type, align 4
  %28 = load ptr, ptr %6, align 8
  %29 = load i32, ptr %8, align 4
  %30 = load ptr, ptr %6, align 8
  %31 = load i32, ptr %8, align 4
  %32 = call zeroext i8 @tvb_get_uint8(ptr noundef %30, i32 noundef %31)
  %33 = zext i8 %32 to i32
  store i32 %33, ptr %11, align 4
  %34 = call ptr @proto_tree_add_uint(ptr noundef %26, i32 noundef %27, ptr noundef %28, i32 noundef %29, i32 noundef 1, i32 noundef %33)
  %35 = load i32, ptr %11, align 4
  %36 = ashr i32 %35, 7
  %37 = add i32 %36, 1
  store i32 %37, ptr %11, align 4
  %38 = load i32, ptr %11, align 4
  %39 = icmp eq i32 %38, 1
  br i1 %39, label %40, label %70

40:                                               ; preds = %25
  %41 = load i32, ptr %8, align 4
  %42 = add i32 %41, 3
  store i32 %42, ptr %8, align 4
  %43 = load ptr, ptr %9, align 8
  %44 = load i32, ptr @hf_ldp_tlv_diffserv_mapnb, align 4
  %45 = load ptr, ptr %6, align 8
  %46 = load i32, ptr %8, align 4
  %47 = load ptr, ptr %6, align 8
  %48 = load i32, ptr %8, align 4
  %49 = call zeroext i8 @tvb_get_uint8(ptr noundef %47, i32 noundef %48)
  %50 = zext i8 %49 to i32
  %51 = and i32 %50, 15
  store i32 %51, ptr %12, align 4
  %52 = call ptr @proto_tree_add_uint(ptr noundef %43, i32 noundef %44, ptr noundef %45, i32 noundef %46, i32 noundef 1, i32 noundef %51)
  %53 = load i32, ptr %8, align 4
  %54 = add i32 %53, 1
  store i32 %54, ptr %8, align 4
  store i32 0, ptr %13, align 4
  br label %55

55:                                               ; preds = %66, %40
  %56 = load i32, ptr %13, align 4
  %57 = load i32, ptr %12, align 4
  %58 = icmp slt i32 %56, %57
  br i1 %58, label %59, label %69

59:                                               ; preds = %55
  %60 = load ptr, ptr %6, align 8
  %61 = load ptr, ptr %9, align 8
  %62 = load i32, ptr %11, align 4
  %63 = load i32, ptr %8, align 4
  call void @dissect_diffserv_mpls_common(ptr noundef %60, ptr noundef %61, i32 noundef %62, i32 noundef %63, ptr noundef @dissect_tlv_diffserv.hfindexes, ptr noundef @dissect_tlv_diffserv.etts)
  %64 = load i32, ptr %8, align 4
  %65 = add i32 %64, 4
  store i32 %65, ptr %8, align 4
  br label %66

66:                                               ; preds = %59
  %67 = load i32, ptr %13, align 4
  %68 = add i32 %67, 1
  store i32 %68, ptr %13, align 4
  br label %55, !llvm.loop !24

69:                                               ; preds = %55
  br label %80

70:                                               ; preds = %25
  %71 = load i32, ptr %11, align 4
  %72 = icmp eq i32 %71, 2
  br i1 %72, label %73, label %79

73:                                               ; preds = %70
  %74 = load ptr, ptr %6, align 8
  %75 = load ptr, ptr %9, align 8
  %76 = load i32, ptr %11, align 4
  %77 = load i32, ptr %8, align 4
  %78 = add i32 %77, 2
  call void @dissect_diffserv_mpls_common(ptr noundef %74, ptr noundef %75, i32 noundef %76, i32 noundef %78, ptr noundef @dissect_tlv_diffserv.hfindexes, ptr noundef @dissect_tlv_diffserv.etts)
  br label %79

79:                                               ; preds = %73, %70
  br label %80

80:                                               ; preds = %79, %69
  store i32 0, ptr %14, align 4
  br label %81

81:                                               ; preds = %80, %17
  call void @llvm.lifetime.end.p0(i64 4, ptr %13) #7
  call void @llvm.lifetime.end.p0(i64 4, ptr %12) #7
  call void @llvm.lifetime.end.p0(i64 4, ptr %11) #7
  %82 = load i32, ptr %14, align 4
  switch i32 %82, label %84 [
    i32 0, label %83
    i32 1, label %83
  ]

83:                                               ; preds = %81, %81
  ret void

84:                                               ; preds = %81
  unreachable
}