; Function Attrs: null_pointer_is_valid sspstrong uwtable
define internal fastcc void @dissect_tlv_diffserv(ptr noundef %0, ptr noundef %1, i32 noundef %2, ptr noundef %3, i32 noundef range(i32 0, 2147483644) %4) unnamed_addr #0 {
  %6 = icmp samesign ult i32 %4, 4
  br i1 %6, label %7, label %9

7:                                                ; preds = %5
  %8 = tail call ptr (ptr, ptr, ptr, ptr, i32, i32, ptr, ...) @proto_tree_add_expert_format(ptr noundef %3, ptr noundef %1, ptr noundef nonnull @ei_ldp_tlv_fec_len, ptr noundef %0, i32 noundef %2, i32 noundef %4, ptr noundef nonnull @.str.1092, i32 noundef %4)
  br label %.loopexit

9:                                                ; preds = %5
  %10 = load i32, ptr @hf_ldp_tlv_diffserv_type, align 4
  %11 = tail call zeroext i8 @tvb_get_uint8(ptr noundef %0, i32 noundef %2)
  %12 = zext i8 %11 to i32
  %13 = tail call ptr @proto_tree_add_uint(ptr noundef %3, i32 noundef %10, ptr noundef %0, i32 noundef %2, i32 noundef 1, i32 noundef %12)
  %14 = icmp sgt i8 %11, -1
  br i1 %14, label %15, label %23

15:                                               ; preds = %9
  %16 = add i32 %2, 3
  %17 = load i32, ptr @hf_ldp_tlv_diffserv_mapnb, align 4
  %18 = tail call zeroext i8 @tvb_get_uint8(ptr noundef %0, i32 noundef %16)
  %19 = and i8 %18, 15
  %20 = zext nneg i8 %19 to i32
  %21 = tail call ptr @proto_tree_add_uint(ptr noundef %3, i32 noundef %17, ptr noundef %0, i32 noundef %16, i32 noundef 1, i32 noundef %20)
  %.not = icmp eq i8 %19, 0
  br i1 %.not, label %.loopexit, label %.lr.ph

.lr.ph:                                           ; preds = %15, %.lr.ph
  %.037 = phi i32 [ %22, %.lr.ph ], [ 0, %15 ]
  %.033.in36 = phi i32 [ %.033, %.lr.ph ], [ %2, %15 ]
  %.033 = add i32 %.033.in36, 4
  tail call void @dissect_diffserv_mpls_common(ptr noundef %0, ptr noundef %3, i32 noundef 1, i32 noundef %.033, ptr noundef nonnull @dissect_tlv_diffserv.hfindexes, ptr noundef nonnull @dissect_tlv_diffserv.etts)
  %22 = add nuw nsw i32 %.037, 1
  %exitcond.not = icmp eq i32 %22, %20
  br i1 %exitcond.not, label %.loopexit, label %.lr.ph, !llvm.loop !22

23:                                               ; preds = %9
  %24 = add i32 %2, 2
  tail call void @dissect_diffserv_mpls_common(ptr noundef %0, ptr noundef %3, i32 noundef 2, i32 noundef %24, ptr noundef nonnull @dissect_tlv_diffserv.hfindexes, ptr noundef nonnull @dissect_tlv_diffserv.etts)
  br label %.loopexit

.loopexit:                                        ; preds = %.lr.ph, %15, %23, %7
  ret void
}